; Function Attrs: mustprogress uwtable
define void @_ZN7mitsuba12FileResolverC2ERKS0_(ptr noundef nonnull align 8 dereferenceable(40) %0, ptr nocapture noundef nonnull readonly align 8 dereferenceable(40) %1) unnamed_addr #0 align 2 personality ptr @__gxx_personality_v0 {
  %3 = getelementptr inbounds i8, ptr %0, i64 8
  store i32 0, ptr %3, align 8
  store ptr getelementptr inbounds inrange(-16, 72) ({ [11 x ptr] }, ptr @_ZTVN7mitsuba12FileResolverE, i64 0, i32 0, i64 2), ptr %0, align 8
  %4 = getelementptr inbounds i8, ptr %0, i64 16
  %5 = getelementptr inbounds i8, ptr %1, i64 16
  tail call void @llvm.memset.p0.i64(ptr noundef nonnull align 8 dereferenceable(24) %4, i8 0, i64 24, i1 false)
  %6 = load ptr, ptr %5, align 8
  %7 = getelementptr inbounds i8, ptr %1, i64 24
  %8 = load ptr, ptr %7, align 8
  %9 = ptrtoint ptr %8 to i64
  %10 = ptrtoint ptr %6 to i64
  %11 = sub i64 %9, %10
  %12 = ashr exact i64 %11, 5
  invoke void @_ZNSt3__16vectorIN7mitsuba10filesystem4pathENS_9allocatorIS3_EEE16__init_with_sizeB8ne190000IPS3_S8_EEvT_T0_m(ptr noundef nonnull align 8 dereferenceable(24) %4, ptr noundef %6, ptr noundef %8, i64 noundef %12)
          to label %_ZNSt3__16vectorIN7mitsuba10filesystem4pathENS_9allocatorIS3_EEEC2ERKS6_.exit unwind label %13

_ZNSt3__16vectorIN7mitsuba10filesystem4pathENS_9allocatorIS3_EEEC2ERKS6_.exit: ; preds = %2
  ret void

13:                                               ; preds = %2
  %14 = landingpad { ptr, i32 }
          cleanup
  tail call void @_ZN7mitsuba6ObjectD2Ev(ptr noundef nonnull align 8 dereferenceable(12) %0) #14
  resume { ptr, i32 } %14
}